; Function Attrs: mustprogress nounwind uwtable
define dso_local noundef nonnull ptr @_ZN5clang7CodeGen13CGHLSLRuntime23convertHLSLSpecificTypeEPKNS_4TypeE(ptr nocapture noundef nonnull readonly align 8 dereferenceable(96) %0, ptr noundef %1) local_unnamed_addr #0 align 2 {
  %3 = getelementptr inbounds nuw i8, ptr %0, i64 8
  %4 = load ptr, ptr %3, align 8
  %5 = tail call noundef nonnull align 8 dereferenceable(24) ptr @_ZN5clang7CodeGen13CodeGenModule20getTargetCodeGenInfoEv(ptr noundef nonnull align 8 dereferenceable(3600) %4) #16
  %6 = load ptr, ptr %3, align 8
  %7 = load ptr, ptr %5, align 8
  %8 = getelementptr inbounds i8, ptr %7, i64 360
  %9 = load ptr, ptr %8, align 8
  %10 = tail call noundef ptr %9(ptr noundef nonnull align 8 dereferenceable(24) %5, ptr noundef nonnull align 8 dereferenceable(3600) %6, ptr noundef %1) #16
  %11 = icmp ne ptr %10, null
  tail call void @llvm.assume(i1 %11)
  ret ptr %10
}